; Function Attrs: mustprogress nounwind uwtable
define hidden void @_ZN5clang7targets16AMDGPUTargetInfo6adjustERNS_17DiagnosticsEngineERNS_11LangOptionsE(ptr noundef nonnull align 8 dereferenceable(568) %0, ptr noundef nonnull align 8 dereferenceable(1304) %1, ptr noundef nonnull align 8 dereferenceable(841) %2) unnamed_addr #1 align 2 {
  tail call void @_ZN5clang10TargetInfo6adjustERNS_17DiagnosticsEngineERNS_11LangOptionsE(ptr noundef nonnull align 8 dereferenceable(489) %0, ptr noundef nonnull align 8 dereferenceable(1304) %1, ptr noundef nonnull align 8 dereferenceable(841) %2) #18
  %4 = getelementptr inbounds nuw i8, ptr %2, i64 40
  %5 = load i64, ptr %4, align 8
  %6 = and i64 %5, 2305843009213693952
  %.not = icmp eq i64 %6, 0
  %7 = getelementptr inbounds i8, ptr %0, i64 248
  %8 = load i32, ptr %7, align 8
  %.fr = freeze i32 %8
  %.not5 = icmp eq i32 %.fr, 26
  %or.cond = and i1 %.not, %.not5
  %9 = select i1 %or.cond, ptr @_ZN5clang7targets16AMDGPUTargetInfo17AMDGPUDefIsGenMapE, ptr @_ZN5clang7targets16AMDGPUTargetInfo18AMDGPUDefIsPrivMapE
  %10 = getelementptr inbounds nuw i8, ptr %0, i64 344
  store ptr %9, ptr %10, align 8
  ret void
}